target datalayout = "e-m:e-p270:32:32-p271:32:32-p272:64:64-i64:64-i128:128-f80:128-n8:16:32:64-S128"
target triple = "x86_64-pc-linux-gnu"

%struct.expert_field = type { i32, i32 }
%struct.MessageHeader = type { [4 x i8], %struct.Version, i8, i8, i32, i32, i32, ptr }
%struct.Version = type { i8, i8 }

@hf_Tango_Device_3_read_attributes_3_return_loop = internal global i32 0, align 4
@hf_Tango_Device_3_read_attributes_3_names_loop = internal global i32 0, align 4
@hf_Tango_Device_3_read_attributes_3_names = internal global i32 0, align 4
@hf_Tango_Device_3_read_attributes_3_source = internal global i32 0, align 4
@ei_tango_unknown_giop_msg = internal global %struct.expert_field zeroinitializer, align 4
@ei_tango_unknown_exception = internal global %struct.expert_field zeroinitializer, align 4
@ett_giop_struct = internal global i32 0, align 4
@ett_giop_sequence = internal global i32 0, align 4
@boundary = internal global i32 12, align 4
@.str.771 = private unnamed_addr constant [21 x i8] c"Unknown exception %d\00", align 1
@.str.772 = private unnamed_addr constant [24 x i8] c"Unknown GIOP message %d\00", align 1
@.str.866 = private unnamed_addr constant [30 x i8] c"struct Tango_AttributeValue_3\00", align 1
@.str.870 = private unnamed_addr constant [48 x i8] c"sequence Tango_Device_3_read_attributes_3_names\00", align 1
@.str.871 = private unnamed_addr constant [49 x i8] c"sequence Tango_Device_3_read_attributes_3_return\00", align 1

; Function Attrs: null_pointer_is_valid sspstrong uwtable
define internal void @decode_Tango_Device_3_read_attributes_3(ptr noundef %0, ptr noundef %1, ptr noundef %2, ptr noundef %3, ptr noundef %4, ptr noundef %5, ptr noundef %6, i1 noundef zeroext %7) #0 {
  %9 = alloca ptr, align 8
  %10 = alloca ptr, align 8
  %11 = alloca ptr, align 8
  %12 = alloca ptr, align 8
  %13 = alloca ptr, align 8
  %14 = alloca ptr, align 8
  %15 = alloca ptr, align 8
  %16 = alloca i8, align 1
  %17 = alloca i32, align 4
  %18 = alloca i32, align 4
  %19 = alloca i32, align 4
  %20 = alloca i32, align 4
  %21 = alloca i32, align 4
  %22 = alloca ptr, align 8
  %23 = alloca ptr, align 8
  %24 = alloca ptr, align 8
  store ptr %0, ptr %9, align 8
  store ptr %1, ptr %10, align 8
  store ptr %2, ptr %11, align 8
  store ptr %3, ptr %12, align 8
  store ptr %4, ptr %13, align 8
  store ptr %5, ptr %14, align 8
  store ptr %6, ptr %15, align 8
  %25 = zext i1 %7 to i8
  store i8 %25, ptr %16, align 1
  call void @llvm.lifetime.start.p0(i64 4, ptr %17) #6
  call void @llvm.lifetime.start.p0(i64 4, ptr %18) #6
  call void @llvm.lifetime.start.p0(i64 4, ptr %19) #6
  call void @llvm.lifetime.start.p0(i64 4, ptr %20) #6
  call void @llvm.lifetime.start.p0(i64 4, ptr %21) #6
  %26 = load ptr, ptr %14, align 8
  %27 = getelementptr inbounds nuw %struct.MessageHeader, ptr %26, i32 0, i32 3
  %28 = load i8, ptr %27, align 1
  %29 = zext i8 %28 to i32
  switch i32 %29, label %142 [
    i32 0, label %30
    i32 1, label %83
  ]

30:                                               ; preds = %8
  %31 = load ptr, ptr %9, align 8
  %32 = load ptr, ptr %13, align 8
  %33 = load i8, ptr %16, align 1, !range !6, !noundef !7
  %34 = trunc i8 %33 to i1
  %35 = load i32, ptr @boundary, align 4
  %36 = call i32 @get_CDR_ulong(ptr noundef %31, ptr noundef %32, i1 noundef zeroext %34, i32 noundef %35)
  store i32 %36, ptr %17, align 4
  %37 = load ptr, ptr %11, align 8
  %38 = load i32, ptr @hf_Tango_Device_3_read_attributes_3_names_loop, align 4
  %39 = load ptr, ptr %9, align 8
  %40 = load ptr, ptr %13, align 8
  %41 = load i32, ptr %40, align 4
  %42 = sub i32 %41, 4
  %43 = load i32, ptr %17, align 4
  %44 = call ptr @proto_tree_add_uint(ptr noundef %37, i32 noundef %38, ptr noundef %39, i32 noundef %42, i32 noundef 4, i32 noundef %43)
  call void @llvm.lifetime.start.p0(i64 8, ptr %22) #6
  %45 = load ptr, ptr %11, align 8
  store ptr %45, ptr %22, align 8
  %46 = load ptr, ptr %11, align 8
  %47 = load ptr, ptr %9, align 8
  %48 = load ptr, ptr %13, align 8
  %49 = load i32, ptr %48, align 4
  %50 = load i32, ptr @ett_giop_sequence, align 4
  %51 = call ptr @proto_tree_add_subtree(ptr noundef %46, ptr noundef %47, i32 noundef %49, i32 noundef -1, i32 noundef %50, ptr noundef null, ptr noundef @.str.870)
  store ptr %51, ptr %11, align 8
  store i32 0, ptr %18, align 4
  br label %52

52:                                               ; preds = %64, %30
  %53 = load i32, ptr %18, align 4
  %54 = load i32, ptr %17, align 4
  %55 = icmp ult i32 %53, %54
  br i1 %55, label %56, label %67

56:                                               ; preds = %52
  %57 = load ptr, ptr %11, align 8
  %58 = load ptr, ptr %9, align 8
  %59 = load ptr, ptr %13, align 8
  %60 = load i8, ptr %16, align 1, !range !6, !noundef !7
  %61 = trunc i8 %60 to i1
  %62 = load i32, ptr @boundary, align 4
  %63 = load i32, ptr @hf_Tango_Device_3_read_attributes_3_names, align 4
  call void @giop_add_CDR_string(ptr noundef %57, ptr noundef %58, ptr noundef %59, i1 noundef zeroext %61, i32 noundef %62, i32 noundef %63)
  br label %64

64:                                               ; preds = %56
  %65 = load i32, ptr %18, align 4
  %66 = add i32 %65, 1
  store i32 %66, ptr %18, align 4
  br label %52, !llvm.loop !31

67:                                               ; preds = %52
  %68 = load ptr, ptr %22, align 8
  store ptr %68, ptr %11, align 8
  call void @llvm.lifetime.end.p0(i64 8, ptr %22) #6
  %69 = load ptr, ptr %9, align 8
  %70 = load ptr, ptr %13, align 8
  %71 = load i8, ptr %16, align 1, !range !6, !noundef !7
  %72 = trunc i8 %71 to i1
  %73 = load i32, ptr @boundary, align 4
  %74 = call i32 @get_CDR_enum(ptr noundef %69, ptr noundef %70, i1 noundef zeroext %72, i32 noundef %73)
  store i32 %74, ptr %19, align 4
  %75 = load ptr, ptr %11, align 8
  %76 = load i32, ptr @hf_Tango_Device_3_read_attributes_3_source, align 4
  %77 = load ptr, ptr %9, align 8
  %78 = load ptr, ptr %13, align 8
  %79 = load i32, ptr %78, align 4
  %80 = sub i32 %79, 4
  %81 = load i32, ptr %19, align 4
  %82 = call ptr @proto_tree_add_uint(ptr noundef %75, i32 noundef %76, ptr noundef %77, i32 noundef %80, i32 noundef 4, i32 noundef %81)
  br label %150

83:                                               ; preds = %8
  %84 = load ptr, ptr %14, align 8
  %85 = getelementptr inbounds nuw %struct.MessageHeader, ptr %84, i32 0, i32 6
  %86 = load i32, ptr %85, align 8
  switch i32 %86, label %134 [
    i32 0, label %87
    i32 1, label %141
  ]

87:                                               ; preds = %83
  %88 = load ptr, ptr %9, align 8
  %89 = load ptr, ptr %13, align 8
  %90 = load i8, ptr %16, align 1, !range !6, !noundef !7
  %91 = trunc i8 %90 to i1
  %92 = load i32, ptr @boundary, align 4
  %93 = call i32 @get_CDR_ulong(ptr noundef %88, ptr noundef %89, i1 noundef zeroext %91, i32 noundef %92)
  store i32 %93, ptr %20, align 4
  %94 = load ptr, ptr %11, align 8
  %95 = load i32, ptr @hf_Tango_Device_3_read_attributes_3_return_loop, align 4
  %96 = load ptr, ptr %9, align 8
  %97 = load ptr, ptr %13, align 8
  %98 = load i32, ptr %97, align 4
  %99 = sub i32 %98, 4
  %100 = load i32, ptr %20, align 4
  %101 = call ptr @proto_tree_add_uint(ptr noundef %94, i32 noundef %95, ptr noundef %96, i32 noundef %99, i32 noundef 4, i32 noundef %100)
  call void @llvm.lifetime.start.p0(i64 8, ptr %23) #6
  %102 = load ptr, ptr %11, align 8
  store ptr %102, ptr %23, align 8
  %103 = load ptr, ptr %11, align 8
  %104 = load ptr, ptr %9, align 8
  %105 = load ptr, ptr %13, align 8
  %106 = load i32, ptr %105, align 4
  %107 = load i32, ptr @ett_giop_sequence, align 4
  %108 = call ptr @proto_tree_add_subtree(ptr noundef %103, ptr noundef %104, i32 noundef %106, i32 noundef -1, i32 noundef %107, ptr noundef null, ptr noundef @.str.871)
  store ptr %108, ptr %11, align 8
  store i32 0, ptr %21, align 4
  br label %109

109:                                              ; preds = %129, %87
  %110 = load i32, ptr %21, align 4
  %111 = load i32, ptr %20, align 4
  %112 = icmp ult i32 %110, %111
  br i1 %112, label %113, label %132

113:                                              ; preds = %109
  call void @llvm.lifetime.start.p0(i64 8, ptr %24) #6
  %114 = load ptr, ptr %11, align 8
  %115 = load ptr, ptr %9, align 8
  %116 = load ptr, ptr %13, align 8
  %117 = load i32, ptr %116, align 4
  %118 = load i32, ptr @ett_giop_struct, align 4
  %119 = call ptr @proto_tree_add_subtree(ptr noundef %114, ptr noundef %115, i32 noundef %117, i32 noundef -1, i32 noundef %118, ptr noundef null, ptr noundef @.str.866)
  store ptr %119, ptr %24, align 8
  %120 = load ptr, ptr %9, align 8
  %121 = load ptr, ptr %10, align 8
  %122 = load ptr, ptr %24, align 8
  %123 = load ptr, ptr %12, align 8
  %124 = load ptr, ptr %13, align 8
  %125 = load ptr, ptr %14, align 8
  %126 = load ptr, ptr %15, align 8
  %127 = load i8, ptr %16, align 1, !range !6, !noundef !7
  %128 = trunc i8 %127 to i1
  call void @decode_Tango_AttributeValue_3_st(ptr noundef %120, ptr noundef %121, ptr noundef %122, ptr noundef %123, ptr noundef %124, ptr noundef %125, ptr noundef %126, i1 noundef zeroext %128)
  call void @llvm.lifetime.end.p0(i64 8, ptr %24) #6
  br label %129

129:                                              ; preds = %113
  %130 = load i32, ptr %21, align 4
  %131 = add i32 %130, 1
  store i32 %131, ptr %21, align 4
  br label %109, !llvm.loop !32

132:                                              ; preds = %109
  %133 = load ptr, ptr %23, align 8
  store ptr %133, ptr %11, align 8
  call void @llvm.lifetime.end.p0(i64 8, ptr %23) #6
  br label %141

134:                                              ; preds = %83
  %135 = load ptr, ptr %10, align 8
  %136 = load ptr, ptr %12, align 8
  %137 = load ptr, ptr %14, align 8
  %138 = getelementptr inbounds nuw %struct.MessageHeader, ptr %137, i32 0, i32 6
  %139 = load i32, ptr %138, align 8
  %140 = call ptr (ptr, ptr, ptr, ptr, ...) @expert_add_info_format(ptr noundef %135, ptr noundef %136, ptr noundef @ei_tango_unknown_exception, ptr noundef @.str.771, i32 noundef %139)
  br label %141

141:                                              ; preds = %134, %83, %132
  br label %150

142:                                              ; preds = %8
  %143 = load ptr, ptr %10, align 8
  %144 = load ptr, ptr %12, align 8
  %145 = load ptr, ptr %14, align 8
  %146 = getelementptr inbounds nuw %struct.MessageHeader, ptr %145, i32 0, i32 3
  %147 = load i8, ptr %146, align 1
  %148 = zext i8 %147 to i32
  %149 = call ptr (ptr, ptr, ptr, ptr, ...) @expert_add_info_format(ptr noundef %143, ptr noundef %144, ptr noundef @ei_tango_unknown_giop_msg, ptr noundef @.str.772, i32 noundef %148)
  br label %150

150:                                              ; preds = %142, %141, %67
  call void @llvm.lifetime.end.p0(i64 4, ptr %21) #6
  call void @llvm.lifetime.end.p0(i64 4, ptr %20) #6
  call void @llvm.lifetime.end.p0(i64 4, ptr %19) #6
  call void @llvm.lifetime.end.p0(i64 4, ptr %18) #6
  call void @llvm.lifetime.end.p0(i64 4, ptr %17) #6
  ret void
}